; Function Attrs: nounwind uwtable
define dso_local void @unblockClientOnTimeout(ptr noundef %0) local_unnamed_addr #0 {
  %2 = getelementptr inbounds nuw i8, ptr %0, i64 480
  %3 = load i32, ptr %2, align 8, !tbaa !5
  %4 = icmp eq i32 %3, 4
  br i1 %4, label %5, label %7

5:                                                ; preds = %1
  %6 = tail call i32 @isModuleClientUnblocked(ptr noundef nonnull %0) #5
  %.not = icmp eq i32 %6, 0
  br i1 %.not, label %7, label %14

7:                                                ; preds = %5, %1
  tail call void @replyToBlockedClientTimedOut(ptr noundef nonnull %0)
  %8 = getelementptr inbounds nuw i8, ptr %0, i64 8
  %9 = load i64, ptr %8, align 8, !tbaa !34
  %10 = and i64 %9, 1073741824
  %.not6 = icmp eq i64 %10, 0
  br i1 %.not6, label %13, label %11

11:                                               ; preds = %7
  %12 = and i64 %9, -1073741825
  store i64 %12, ptr %8, align 8, !tbaa !34
  br label %13

13:                                               ; preds = %11, %7
  tail call void @unblockClient(ptr noundef nonnull %0, i32 noundef 1)
  br label %14

14:                                               ; preds = %5, %13
  ret void
}